; Function Attrs: nounwind uwtable
define internal i32 @xorhmacsha2sig_to_PrivateKeyInfo_pem_encode(ptr noundef captures(none) %0, ptr noundef %1, ptr noundef %2, ptr noundef readnone captures(address_is_null) %3, i32 noundef %4, ptr noundef %5, ptr noundef %6) #0 {
  %.not = icmp eq ptr %3, null
  br i1 %.not, label %9, label %8

8:                                                ; preds = %7
  tail call void @ERR_new() #16
  tail call void @ERR_set_debug(ptr noundef nonnull @.str.2, i32 noundef 2040, ptr noundef nonnull @__func__.xorhmacsha2sig_to_PrivateKeyInfo_pem_encode) #16
  tail call void (i32, i32, ptr, ...) @ERR_set_error(i32 noundef 128, i32 noundef 524550, ptr noundef null) #16
  br label %key2any_encode.exit

9:                                                ; preds = %7
  %10 = and i32 %4, 1
  %.not7 = icmp eq i32 %10, 0
  br i1 %.not7, label %26, label %11

11:                                               ; preds = %9
  %12 = tail call i32 @OBJ_sn2nid(ptr noundef nonnull @.str.5) #16
  %13 = icmp eq ptr %2, null
  %14 = icmp slt i32 %12, 1
  %or.cond.i = select i1 %13, i1 true, i1 %14
  br i1 %or.cond.i, label %15, label %16

15:                                               ; preds = %11
  tail call void @ERR_new() #16
  tail call void @ERR_set_debug(ptr noundef nonnull @.str.2, i32 noundef 1843, ptr noundef nonnull @__func__.key2any_encode) #16
  tail call void (i32, i32, ptr, ...) @ERR_set_error(i32 noundef 128, i32 noundef 786690, ptr noundef null) #16
  br label %key2any_encode.exit

16:                                               ; preds = %11
  %17 = load ptr, ptr %0, align 8, !tbaa !58
  %18 = load ptr, ptr %17, align 8, !tbaa !4
  %19 = tail call ptr @BIO_new_from_core_bio(ptr noundef %18, ptr noundef %1) #16
  %.not25.i = icmp eq ptr %19, null
  br i1 %.not25.i, label %24, label %20

20:                                               ; preds = %16
  %21 = getelementptr inbounds nuw i8, ptr %0, i64 24
  store ptr %5, ptr %21, align 8, !tbaa !67
  %22 = getelementptr inbounds nuw i8, ptr %0, i64 32
  store ptr %6, ptr %22, align 8, !tbaa !68
  %23 = tail call fastcc i32 @key_to_pki_pem_priv_bio(ptr noundef nonnull %19, ptr noundef nonnull %2, i32 noundef %12, ptr noundef nonnull @prepare_xorx_params, ptr noundef nonnull @xorx_pki_priv_to_der, ptr noundef nonnull %0) #16
  br label %24

24:                                               ; preds = %20, %16
  %.1.i = phi i32 [ %23, %20 ], [ 0, %16 ]
  %25 = tail call i32 @BIO_free(ptr noundef %19) #16
  br label %key2any_encode.exit

26:                                               ; preds = %9
  tail call void @ERR_new() #16
  tail call void @ERR_set_debug(ptr noundef nonnull @.str.2, i32 noundef 2040, ptr noundef nonnull @__func__.xorhmacsha2sig_to_PrivateKeyInfo_pem_encode) #16
  tail call void (i32, i32, ptr, ...) @ERR_set_error(i32 noundef 128, i32 noundef 524550, ptr noundef null) #16
  br label %key2any_encode.exit

key2any_encode.exit:                              ; preds = %24, %15, %26, %8
  %.0 = phi i32 [ 0, %8 ], [ 0, %26 ], [ 0, %15 ], [ %.1.i, %24 ]
  ret i32 %.0
}